
spectre_original_no_attack_lfence:     file format elf64-x86-64


Disassembly of section .init:

0000000000001000 <_init>:
    1000:	f3 0f 1e fa          	endbr64
    1004:	48 83 ec 08          	sub    $0x8,%rsp
    1008:	48 8b 05 d9 2f 00 00 	mov    0x2fd9(%rip),%rax        # 3fe8 <__gmon_start__@Base>
    100f:	48 85 c0             	test   %rax,%rax
    1012:	74 02                	je     1016 <_init+0x16>
    1014:	ff d0                	call   *%rax
    1016:	48 83 c4 08          	add    $0x8,%rsp
    101a:	c3                   	ret

Disassembly of section .plt:

0000000000001020 <.plt>:
    1020:	ff 35 8a 2f 00 00    	push   0x2f8a(%rip)        # 3fb0 <_GLOBAL_OFFSET_TABLE_+0x8>
    1026:	ff 25 8c 2f 00 00    	jmp    *0x2f8c(%rip)        # 3fb8 <_GLOBAL_OFFSET_TABLE_+0x10>
    102c:	0f 1f 40 00          	nopl   0x0(%rax)
    1030:	f3 0f 1e fa          	endbr64
    1034:	68 00 00 00 00       	push   $0x0
    1039:	e9 e2 ff ff ff       	jmp    1020 <_init+0x20>
    103e:	66 90                	xchg   %ax,%ax
    1040:	f3 0f 1e fa          	endbr64
    1044:	68 01 00 00 00       	push   $0x1
    1049:	e9 d2 ff ff ff       	jmp    1020 <_init+0x20>
    104e:	66 90                	xchg   %ax,%ax
    1050:	f3 0f 1e fa          	endbr64
    1054:	68 02 00 00 00       	push   $0x2
    1059:	e9 c2 ff ff ff       	jmp    1020 <_init+0x20>
    105e:	66 90                	xchg   %ax,%ax

Disassembly of section .plt.got:

0000000000001060 <__cxa_finalize@plt>:
    1060:	f3 0f 1e fa          	endbr64
    1064:	ff 25 8e 2f 00 00    	jmp    *0x2f8e(%rip)        # 3ff8 <__cxa_finalize@GLIBC_2.2.5>
    106a:	66 0f 1f 44 00 00    	nopw   0x0(%rax,%rax,1)

Disassembly of section .plt.sec:

0000000000001070 <puts@plt>:
    1070:	f3 0f 1e fa          	endbr64
    1074:	ff 25 46 2f 00 00    	jmp    *0x2f46(%rip)        # 3fc0 <puts@GLIBC_2.2.5>
    107a:	66 0f 1f 44 00 00    	nopw   0x0(%rax,%rax,1)

0000000000001080 <__stack_chk_fail@plt>:
    1080:	f3 0f 1e fa          	endbr64
    1084:	ff 25 3e 2f 00 00    	jmp    *0x2f3e(%rip)        # 3fc8 <__stack_chk_fail@GLIBC_2.4>
    108a:	66 0f 1f 44 00 00    	nopw   0x0(%rax,%rax,1)

0000000000001090 <printf@plt>:
    1090:	f3 0f 1e fa          	endbr64
    1094:	ff 25 36 2f 00 00    	jmp    *0x2f36(%rip)        # 3fd0 <printf@GLIBC_2.2.5>
    109a:	66 0f 1f 44 00 00    	nopw   0x0(%rax,%rax,1)

Disassembly of section .text:

00000000000010a0 <_start>:
    10a0:	f3 0f 1e fa          	endbr64
    10a4:	31 ed                	xor    %ebp,%ebp
    10a6:	49 89 d1             	mov    %rdx,%r9
    10a9:	5e                   	pop    %rsi
    10aa:	48 89 e2             	mov    %rsp,%rdx
    10ad:	48 83 e4 f0          	and    $0xfffffffffffffff0,%rsp
    10b1:	50                   	push   %rax
    10b2:	54                   	push   %rsp
    10b3:	45 31 c0             	xor    %r8d,%r8d
    10b6:	31 c9                	xor    %ecx,%ecx
    10b8:	48 8d 3d 1d 01 00 00 	lea    0x11d(%rip),%rdi        # 11dc <main>
    10bf:	ff 15 13 2f 00 00    	call   *0x2f13(%rip)        # 3fd8 <__libc_start_main@GLIBC_2.34>
    10c5:	f4                   	hlt
    10c6:	66 2e 0f 1f 84 00 00 	cs nopw 0x0(%rax,%rax,1)
    10cd:	00 00 00 

00000000000010d0 <deregister_tm_clones>:
    10d0:	48 8d 3d 11 30 00 00 	lea    0x3011(%rip),%rdi        # 40e8 <__TMC_END__>
    10d7:	48 8d 05 0a 30 00 00 	lea    0x300a(%rip),%rax        # 40e8 <__TMC_END__>
    10de:	48 39 f8             	cmp    %rdi,%rax
    10e1:	74 15                	je     10f8 <deregister_tm_clones+0x28>
    10e3:	48 8b 05 f6 2e 00 00 	mov    0x2ef6(%rip),%rax        # 3fe0 <_ITM_deregisterTMCloneTable@Base>
    10ea:	48 85 c0             	test   %rax,%rax
    10ed:	74 09                	je     10f8 <deregister_tm_clones+0x28>
    10ef:	ff e0                	jmp    *%rax
    10f1:	0f 1f 80 00 00 00 00 	nopl   0x0(%rax)
    10f8:	c3                   	ret
    10f9:	0f 1f 80 00 00 00 00 	nopl   0x0(%rax)

0000000000001100 <register_tm_clones>:
    1100:	48 8d 3d e1 2f 00 00 	lea    0x2fe1(%rip),%rdi        # 40e8 <__TMC_END__>
    1107:	48 8d 35 da 2f 00 00 	lea    0x2fda(%rip),%rsi        # 40e8 <__TMC_END__>
    110e:	48 29 fe             	sub    %rdi,%rsi
    1111:	48 89 f0             	mov    %rsi,%rax
    1114:	48 c1 ee 3f          	shr    $0x3f,%rsi
    1118:	48 c1 f8 03          	sar    $0x3,%rax
    111c:	48 01 c6             	add    %rax,%rsi
    111f:	48 d1 fe             	sar    $1,%rsi
    1122:	74 14                	je     1138 <register_tm_clones+0x38>
    1124:	48 8b 05 c5 2e 00 00 	mov    0x2ec5(%rip),%rax        # 3ff0 <_ITM_registerTMCloneTable@Base>
    112b:	48 85 c0             	test   %rax,%rax
    112e:	74 08                	je     1138 <register_tm_clones+0x38>
    1130:	ff e0                	jmp    *%rax
    1132:	66 0f 1f 44 00 00    	nopw   0x0(%rax,%rax,1)
    1138:	c3                   	ret
    1139:	0f 1f 80 00 00 00 00 	nopl   0x0(%rax)

0000000000001140 <__do_global_dtors_aux>:
    1140:	f3 0f 1e fa          	endbr64
    1144:	80 3d b5 2f 00 00 00 	cmpb   $0x0,0x2fb5(%rip)        # 4100 <completed.0>
    114b:	75 2b                	jne    1178 <__do_global_dtors_aux+0x38>
    114d:	55                   	push   %rbp
    114e:	48 83 3d a2 2e 00 00 	cmpq   $0x0,0x2ea2(%rip)        # 3ff8 <__cxa_finalize@GLIBC_2.2.5>
    1155:	00 
    1156:	48 89 e5             	mov    %rsp,%rbp
    1159:	74 0c                	je     1167 <__do_global_dtors_aux+0x27>
    115b:	48 8b 3d a6 2e 00 00 	mov    0x2ea6(%rip),%rdi        # 4008 <__dso_handle>
    1162:	e8 f9 fe ff ff       	call   1060 <__cxa_finalize@plt>
    1167:	e8 64 ff ff ff       	call   10d0 <deregister_tm_clones>
    116c:	c6 05 8d 2f 00 00 01 	movb   $0x1,0x2f8d(%rip)        # 4100 <completed.0>
    1173:	5d                   	pop    %rbp
    1174:	c3                   	ret
    1175:	0f 1f 00             	nopl   (%rax)
    1178:	c3                   	ret
    1179:	0f 1f 80 00 00 00 00 	nopl   0x0(%rax)

0000000000001180 <frame_dummy>:
    1180:	f3 0f 1e fa          	endbr64
    1184:	e9 77 ff ff ff       	jmp    1100 <register_tm_clones>

0000000000001189 <victim_function>:
    1189:	f3 0f 1e fa          	endbr64
    118d:	55                   	push   %rbp
    118e:	48 89 e5             	mov    %rsp,%rbp
    1191:	48 89 7d f8          	mov    %rdi,-0x8(%rbp)
    1195:	8b 05 85 2e 00 00    	mov    0x2e85(%rip),%eax        # 4020 <array1_size>
    119b:	89 c0                	mov    %eax,%eax
    119d:	48 39 45 f8          	cmp    %rax,-0x8(%rbp)
    11a1:	73 36                	jae    11d9 <victim_function+0x50>
    11a3:	0f ae e8             	lfence
    11a6:	48 8d 15 93 2e 00 00 	lea    0x2e93(%rip),%rdx        # 4040 <array1>
    11ad:	48 8b 45 f8          	mov    -0x8(%rbp),%rax
    11b1:	48 01 d0             	add    %rdx,%rax
    11b4:	0f b6 00             	movzbl (%rax),%eax
    11b7:	0f b6 c0             	movzbl %al,%eax
    11ba:	c1 e0 09             	shl    $0x9,%eax
    11bd:	48 98                	cltq
    11bf:	48 8d 15 5a 2f 00 00 	lea    0x2f5a(%rip),%rdx        # 4120 <array2>
    11c6:	0f b6 14 10          	movzbl (%rax,%rdx,1),%edx
    11ca:	0f b6 05 0f 2f 00 00 	movzbl 0x2f0f(%rip),%eax        # 40e0 <temp>
    11d1:	21 d0                	and    %edx,%eax
    11d3:	88 05 07 2f 00 00    	mov    %al,0x2f07(%rip)        # 40e0 <temp>
    11d9:	90                   	nop
    11da:	5d                   	pop    %rbp
    11db:	c3                   	ret

00000000000011dc <main>:
    11dc:	f3 0f 1e fa          	endbr64
    11e0:	55                   	push   %rbp
    11e1:	48 89 e5             	mov    %rsp,%rbp
    11e4:	48 83 ec 50          	sub    $0x50,%rsp
    11e8:	89 7d bc             	mov    %edi,-0x44(%rbp)
    11eb:	48 89 75 b0          	mov    %rsi,-0x50(%rbp)
    11ef:	64 48 8b 04 25 28 00 	mov    %fs:0x28,%rax
    11f6:	00 00 
    11f8:	48 89 45 f8          	mov    %rax,-0x8(%rbp)
    11fc:	31 c0                	xor    %eax,%eax
    11fe:	48 c7 45 c8 05 00 00 	movq   $0x5,-0x38(%rbp)
    1205:	00 
    1206:	c7 45 c4 00 00 00 00 	movl   $0x0,-0x3c(%rbp)
    120d:	eb 14                	jmp    1223 <main+0x47>
    120f:	8b 45 c4             	mov    -0x3c(%rbp),%eax
    1212:	48 98                	cltq
    1214:	48 8d 15 05 2f 00 00 	lea    0x2f05(%rip),%rdx        # 4120 <array2>
    121b:	c6 04 10 01          	movb   $0x1,(%rax,%rdx,1)
    121f:	83 45 c4 01          	addl   $0x1,-0x3c(%rbp)
    1223:	8b 45 c4             	mov    -0x3c(%rbp),%eax
    1226:	3d ff ff 01 00       	cmp    $0x1ffff,%eax
    122b:	76 e2                	jbe    120f <main+0x33>
    122d:	48 8d 05 d4 0d 00 00 	lea    0xdd4(%rip),%rax        # 2008 <_IO_stdin_used+0x8>
    1234:	48 89 c7             	mov    %rax,%rdi
    1237:	e8 34 fe ff ff       	call   1070 <puts@plt>
    123c:	48 8b 45 c8          	mov    -0x38(%rbp),%rax
    1240:	48 89 c7             	mov    %rax,%rdi
    1243:	e8 41 ff ff ff       	call   1189 <victim_function>
    1248:	0f b6 05 91 2e 00 00 	movzbl 0x2e91(%rip),%eax        # 40e0 <temp>
    124f:	0f b6 c0             	movzbl %al,%eax
    1252:	89 c6                	mov    %eax,%esi
    1254:	48 8d 05 cd 0d 00 00 	lea    0xdcd(%rip),%rax        # 2028 <_IO_stdin_used+0x28>
    125b:	48 89 c7             	mov    %rax,%rdi
    125e:	b8 00 00 00 00       	mov    $0x0,%eax
    1263:	e8 28 fe ff ff       	call   1090 <printf@plt>
    1268:	b8 00 00 00 00       	mov    $0x0,%eax
    126d:	48 8b 55 f8          	mov    -0x8(%rbp),%rdx
    1271:	64 48 2b 14 25 28 00 	sub    %fs:0x28,%rdx
    1278:	00 00 
    127a:	74 05                	je     1281 <main+0xa5>
    127c:	e8 ff fd ff ff       	call   1080 <__stack_chk_fail@plt>
    1281:	c9                   	leave
    1282:	c3                   	ret

Disassembly of section .fini:

0000000000001284 <_fini>:
    1284:	f3 0f 1e fa          	endbr64
    1288:	48 83 ec 08          	sub    $0x8,%rsp
    128c:	48 83 c4 08          	add    $0x8,%rsp
    1290:	c3                   	ret
